target datalayout = "e-m:e-p270:32:32-p271:32:32-p272:64:64-i64:64-i128:128-f80:128-n8:16:32:64-S128"
target triple = "x86_64-unknown-linux-gnu"

%struct.redisServer = type { i32, i64, ptr, ptr, ptr, i32, i32, i32, i32, i32, ptr, ptr, ptr, ptr, ptr, ptr, i32, i32, i64, i32, i32, i32, i32, ptr, i32, i32, [41 x i8], i32, i64, i32, i32, i32, ptr, ptr, i32, i32, i64, ptr, ptr, ptr, ptr, [2 x i32], i32, i32, i32, i32, i32, [16 x ptr], i32, ptr, ptr, i32, [8 x %struct.connListener], i32, %struct.connListener, ptr, ptr, ptr, ptr, ptr, ptr, ptr, ptr, ptr, ptr, i32, ptr, i32, ptr, [3 x %struct.pause_event], [256 x i8], ptr, i64, i32, i32, i32, i32, i64, i32, i32, i32, i32, i32, i64, i64, i64, i64, i64, i64, i64, i64, i64, double, i64, i64, i64, i64, i64, i64, i64, i64, i64, i64, i64, i64, i64, i64, i64, i64, i64, i64, i64, i64, double, i64, i64, i64, i64, i64, ptr, i64, i64, i64, %struct.malloc_stats, i64, i64, i64, i64, i64, i64, i64, i64, i64, i64, i64, i64, double, [4 x i64], i64, i64, i64, i64, i64, i64, i64, i64, i64, i64, [7 x %struct.anon], i64, i64, i64, i64, i64, i64, [4 x %struct.durationStats], i32, i32, i32, i32, i32, i32, i32, i32, i32, i32, i64, i32, i32, i32, i32, i64, i64, i32, i32, i32, i32, i32, ptr, [3 x %struct.clientBufferLimitsConfig], i32, i32, ptr, i32, i32, i32, i32, ptr, ptr, i32, i32, i64, i64, i64, i64, i64, i32, i32, ptr, i32, i32, i64, i64, i64, i64, i64, i32, i32, i64, i32, i32, i32, i32, i32, i32, i32, i32, ptr, i32, i64, i64, i64, i64, ptr, i32, ptr, i32, i32, i32, i64, i64, i64, i64, i32, i32, i32, i32, i32, i32, ptr, i32, i32, ptr, i32, i32, i32, [2 x i32], i32, %struct.redisOpArray, i32, ptr, i32, ptr, i32, i32, i32, i32, i32, i32, i32, [41 x i8], [41 x i8], i64, i64, i64, i64, i32, i32, ptr, i64, i64, i64, i32, i32, i32, i32, i32, i32, i32, i64, ptr, ptr, ptr, ptr, i32, i32, ptr, ptr, i32, i32, i64, i64, i64, ptr, i32, ptr, i64, i32, i32, i32, i64, i32, i32, i32, i32, ptr, i32, i32, [41 x i8], i64, i32, ptr, i32, i32, i64, i64, i32, i32, i32, i32, i32, i64, [3 x i32], i32, i32, i32, [9 x i32], ptr, ptr, i32, i64, ptr, ptr, i32, i32, i32, i32, i64, i64, i64, i64, i64, i64, i64, i64, i64, i64, i32, i32, i64, i64, i32, i64, i64, i64, i64, i64, ptr, ptr, i32, ptr, i32, i32, i32, i64, i64, ptr, ptr, i32, i32, i32, i32, i32, ptr, ptr, ptr, i32, i32, i32, i32, i32, i32, i32, i64, i32, i64, i32, i32, i32, i32, i32, i32, i32, i64, ptr, ptr, i64, ptr, i32, %struct.aclInfo, i32, i64, i32, i32, i32, %struct.redisTLSContextConfig, ptr, ptr, ptr, ptr, ptr, i64, i32, ptr, i32, i32, i32, i64, i32, ptr }
%struct.connListener = type { [16 x i32], i32, ptr, i32, i32, ptr, ptr }
%struct.pause_event = type { i32, i64 }
%struct.malloc_stats = type { i64, i64, i64, i64, i64 }
%struct.anon = type { i64, i64, [16 x i64], i32 }
%struct.durationStats = type { i64, i64, i64 }
%struct.clientBufferLimitsConfig = type { i64, i64, i64 }
%struct.redisOpArray = type { ptr, i32, i32 }
%struct.aclInfo = type { i64, i64, i64, i64 }
%struct.redisTLSContextConfig = type { ptr, ptr, ptr, ptr, ptr, ptr, ptr, ptr, ptr, ptr, ptr, ptr, i32, i32, i32, i32 }
%struct.client = type { i64, i64, ptr, i32, ptr, ptr, ptr, ptr, ptr, i64, i64, i32, ptr, i32, i32, ptr, i64, ptr, ptr, ptr, ptr, i32, i32, i64, ptr, i64, ptr, i64, i64, i64, i32, ptr, i64, i64, i32, i32, i32, i32, i64, i64, ptr, i64, i64, i64, i64, i64, i64, i64, i64, [41 x i8], i32, ptr, i32, i32, %struct.multiState, %struct.blockingState, i64, ptr, ptr, ptr, ptr, ptr, ptr, ptr, ptr, ptr, ptr, ptr, ptr, ptr, ptr, i64, ptr, i64, i32, ptr, ptr, ptr, i64, %struct.listNode, i64, i64, i32, i64, ptr }
%struct.multiState = type { ptr, i32, i32, i32, i64, i32 }
%struct.blockingState = type { i32, i64, i32, ptr, i32, i32, i64, ptr, ptr }
%struct.listNode = type { ptr, ptr, ptr }
%struct.list = type { ptr, ptr, ptr, ptr, ptr, i64 }
%struct.listIter = type { ptr, i32 }

@server = external global %struct.redisServer, align 8
@.str.3 = private unnamed_addr constant [14 x i8] c"replication.c\00", align 1
@.str.6 = private unnamed_addr constant [28 x i8] c"server.repl_backlog != NULL\00", align 1

; Function Attrs: nounwind uwtable
define dso_local i32 @canFeedReplicaReplBuffer(ptr noundef %replica) #0 {
entry:
  %retval = alloca i32, align 4
  %replica.addr = alloca ptr, align 8
  store ptr %replica, ptr %replica.addr, align 8
  %0 = load ptr, ptr %replica.addr, align 8
  %flags = getelementptr inbounds %struct.client, ptr %0, i32 0, i32 1
  %1 = load i64, ptr %flags, align 8
  %and = and i64 %1, 4398046511104
  %tobool = icmp ne i64 %and, 0
  br i1 %tobool, label %if.then, label %if.end

if.then:                                          ; preds = %entry
  store i32 0, ptr %retval, align 4
  br label %return

if.end:                                           ; preds = %entry
  %2 = load ptr, ptr %replica.addr, align 8
  %replstate = getelementptr inbounds %struct.client, ptr %2, i32 0, i32 35
  %3 = load i32, ptr %replstate, align 4
  %cmp = icmp eq i32 %3, 6
  br i1 %cmp, label %if.then1, label %if.end2

if.then1:                                         ; preds = %if.end
  store i32 0, ptr %retval, align 4
  br label %return

if.end2:                                          ; preds = %if.end
  store i32 1, ptr %retval, align 4
  br label %return

return:                                           ; preds = %if.end2, %if.then1, %if.then
  %4 = load i32, ptr %retval, align 4
  ret i32 %4
}

; Function Attrs: nounwind uwtable
define dso_local i32 @prepareReplicasToWrite() #0 {
entry:
  %li = alloca %struct.listIter, align 8
  %ln = alloca ptr, align 8
  %prepared = alloca i32, align 4
  %slave = alloca ptr, align 8
  store i32 0, ptr %prepared, align 4
  %0 = load ptr, ptr getelementptr inbounds (%struct.redisServer, ptr @server, i32 0, i32 59), align 8
  call void @listRewind(ptr noundef %0, ptr noundef %li)
  br label %while.cond

while.cond:                                       ; preds = %if.end5, %if.then4, %if.then, %entry
  %call = call ptr @listNext(ptr noundef %li)
  store ptr %call, ptr %ln, align 8
  %tobool = icmp ne ptr %call, null
  br i1 %tobool, label %while.body, label %while.end

while.body:                                       ; preds = %while.cond
  %1 = load ptr, ptr %ln, align 8
  %value = getelementptr inbounds %struct.listNode, ptr %1, i32 0, i32 2
  %2 = load ptr, ptr %value, align 8
  store ptr %2, ptr %slave, align 8
  %3 = load ptr, ptr %slave, align 8
  %call1 = call i32 @canFeedReplicaReplBuffer(ptr noundef %3)
  %tobool2 = icmp ne i32 %call1, 0
  br i1 %tobool2, label %if.end, label %if.then

if.then:                                          ; preds = %while.body
  br label %while.cond, !llvm.loop !8

if.end:                                           ; preds = %while.body
  %4 = load ptr, ptr %slave, align 8
  %call3 = call i32 @prepareClientToWrite(ptr noundef %4)
  %cmp = icmp eq i32 %call3, -1
  br i1 %cmp, label %if.then4, label %if.end5

if.then4:                                         ; preds = %if.end
  br label %while.cond, !llvm.loop !8

if.end5:                                          ; preds = %if.end
  %5 = load i32, ptr %prepared, align 4
  %inc = add nsw i32 %5, 1
  store i32 %inc, ptr %prepared, align 4
  br label %while.cond, !llvm.loop !8

while.end:                                        ; preds = %while.cond
  %6 = load i32, ptr %prepared, align 4
  ret i32 %6
}

; Function Attrs: nounwind uwtable
define dso_local void @replicationFeedStreamFromMasterStream(ptr noundef %buf, i64 noundef %buflen) #0 {
entry:
  %buf.addr = alloca ptr, align 8
  %buflen.addr = alloca i64, align 8
  store ptr %buf, ptr %buf.addr, align 8
  store i64 %buflen, ptr %buflen.addr, align 8
  %0 = load ptr, ptr getelementptr inbounds (%struct.redisServer, ptr @server, i32 0, i32 59), align 8
  %len = getelementptr inbounds %struct.list, ptr %0, i32 0, i32 5
  %1 = load i64, ptr %len, align 8
  %tobool = icmp ne i64 %1, 0
  br i1 %tobool, label %if.then, label %if.end

if.then:                                          ; preds = %entry
  %2 = load ptr, ptr getelementptr inbounds (%struct.redisServer, ptr @server, i32 0, i32 268), align 8
  %cmp = icmp ne ptr %2, null
  %lnot = xor i1 %cmp, true
  %lnot1 = xor i1 %lnot, true
  %lnot.ext = zext i1 %lnot1 to i32
  %conv = sext i32 %lnot.ext to i64
  %tobool2 = icmp ne i64 %conv, 0
  br i1 %tobool2, label %cond.true, label %cond.false

cond.true:                                        ; preds = %if.then
  br label %cond.end

cond.false:                                       ; preds = %if.then
  call void @_serverAssert(ptr noundef @.str.6, ptr noundef @.str.3, i32 noundef 567)
  call void @abort() #13
  unreachable

3:                                                ; No predecessors!
  br label %cond.end

cond.end:                                         ; preds = %3, %cond.true
  br label %if.end

if.end:                                           ; preds = %cond.end, %entry
  %4 = load ptr, ptr getelementptr inbounds (%struct.redisServer, ptr @server, i32 0, i32 268), align 8
  %tobool3 = icmp ne ptr %4, null
  br i1 %tobool3, label %if.then4, label %if.end5

if.then4:                                         ; preds = %if.end
  %call = call i32 @prepareReplicasToWrite()
  %5 = load ptr, ptr %buf.addr, align 8
  %6 = load i64, ptr %buflen.addr, align 8
  call void @feedReplicationBuffer(ptr noundef %5, i64 noundef %6)
  br label %if.end5

if.end5:                                          ; preds = %if.then4, %if.end
  ret void
}