; Function Attrs: nounwind uwtable
define dso_local void @replicationFeedStreamFromMasterStream(ptr nocapture noundef readonly %buf, i64 noundef %buflen) local_unnamed_addr #0 {
entry:
  %li.i = alloca %struct.listIter, align 8
  %0 = load ptr, ptr getelementptr inbounds (%struct.redisServer, ptr @server, i64 0, i32 59), align 8
  %len = getelementptr inbounds i8, ptr %0, i64 40
  %1 = load i64, ptr %len, align 8
  %tobool.not = icmp ne i64 %1, 0
  %2 = load ptr, ptr getelementptr inbounds (%struct.redisServer, ptr @server, i64 0, i32 268), align 8
  %cmp.not = icmp eq ptr %2, null
  %or.cond = select i1 %tobool.not, i1 %cmp.not, i1 false
  br i1 %or.cond, label %cond.false, label %if.end

cond.false:                                       ; preds = %entry
  tail call void @_serverAssert(ptr noundef nonnull @.str.6, ptr noundef nonnull @.str.3, i32 noundef 567) #21
  tail call void @abort() #24
  unreachable

if.end:                                           ; preds = %entry
  br i1 %cmp.not, label %if.end5, label %if.then4

if.then4:                                         ; preds = %if.end
  call void @llvm.lifetime.start.p0(i64 16, ptr nonnull %li.i)
  call void @listRewind(ptr noundef nonnull %0, ptr noundef nonnull %li.i) #21
  br label %while.cond.i

while.cond.i:                                     ; preds = %while.cond.i.backedge, %if.then4
  %call.i = call ptr @listNext(ptr noundef nonnull %li.i) #21
  %tobool.not.i = icmp eq ptr %call.i, null
  br i1 %tobool.not.i, label %prepareReplicasToWrite.exit, label %while.body.i

while.body.i:                                     ; preds = %while.cond.i
  %value.i = getelementptr inbounds i8, ptr %call.i, i64 16
  %3 = load ptr, ptr %value.i, align 8
  %flags.i.i = getelementptr inbounds i8, ptr %3, i64 8
  %4 = load i64, ptr %flags.i.i, align 8
  %and.i.i = and i64 %4, 4398046511104
  %tobool.not.i.i = icmp eq i64 %and.i.i, 0
  br i1 %tobool.not.i.i, label %if.end.i.i, label %canFeedReplicaReplBuffer.exit.i

if.end.i.i:                                       ; preds = %while.body.i
  %replstate.i.i = getelementptr inbounds i8, ptr %3, i64 260
  %5 = load i32, ptr %replstate.i.i, align 4
  %cmp.i.i = icmp ne i32 %5, 6
  %..i.i = zext i1 %cmp.i.i to i32
  br label %canFeedReplicaReplBuffer.exit.i

canFeedReplicaReplBuffer.exit.i:                  ; preds = %if.end.i.i, %while.body.i
  %retval.0.i.i = phi i32 [ 0, %while.body.i ], [ %..i.i, %if.end.i.i ]
  %tobool2.not.i = icmp eq i32 %retval.0.i.i, 0
  br i1 %tobool2.not.i, label %while.cond.i.backedge, label %if.end.i

while.cond.i.backedge:                            ; preds = %canFeedReplicaReplBuffer.exit.i, %if.end.i
  br label %while.cond.i, !llvm.loop !8

if.end.i:                                         ; preds = %canFeedReplicaReplBuffer.exit.i
  %call3.i = call i32 @prepareClientToWrite(ptr noundef nonnull %3) #21
  br label %while.cond.i.backedge

prepareReplicasToWrite.exit:                      ; preds = %while.cond.i
  call void @llvm.lifetime.end.p0(i64 16, ptr nonnull %li.i)
  call void @feedReplicationBuffer(ptr noundef %buf, i64 noundef %buflen)
  br label %if.end5

if.end5:                                          ; preds = %prepareReplicasToWrite.exit, %if.end
  ret void
}